; Function Attrs: nounwind uwtable
define internal noundef i32 @apply_option_parse_directory(ptr noundef readonly captures(none) %0, ptr noundef %1, i32 noundef %2) #0 {
  %.not = icmp eq i32 %2, 0
  br i1 %.not, label %5, label %4

4:                                                ; preds = %3
  tail call void (ptr, i32, ptr, ...) @BUG_fl(ptr noundef nonnull @.str.180, i32 noundef 4956, ptr noundef nonnull @.str.270) #25
  unreachable

5:                                                ; preds = %3
  %6 = getelementptr inbounds nuw i8, ptr %0, i64 16
  %7 = load ptr, ptr %6, align 8, !tbaa !202
  %8 = getelementptr inbounds nuw i8, ptr %7, i64 136
  %9 = getelementptr inbounds nuw i8, ptr %7, i64 144
  store i64 0, ptr %9, align 8, !tbaa !70
  %10 = getelementptr inbounds nuw i8, ptr %7, i64 152
  %11 = load ptr, ptr %10, align 8, !tbaa !69
  %.not9.i = icmp eq ptr %11, @strbuf_slopbuf
  br i1 %.not9.i, label %strbuf_setlen.exit, label %12

12:                                               ; preds = %5
  store i8 0, ptr %11, align 1, !tbaa !53
  br label %strbuf_setlen.exit

strbuf_setlen.exit:                               ; preds = %5, %12
  %13 = tail call i64 @strlen(ptr noundef nonnull dereferenceable(1) %1) #22
  tail call void @strbuf_add(ptr noundef nonnull %8, ptr noundef nonnull %1, i64 noundef %13) #21
  %14 = load i64, ptr %9, align 8, !tbaa !70
  %.not.i = icmp eq i64 %14, 0
  br i1 %.not.i, label %strbuf_complete.exit, label %15

15:                                               ; preds = %strbuf_setlen.exit
  %16 = load ptr, ptr %10, align 8, !tbaa !69
  %17 = getelementptr i8, ptr %16, i64 %14
  %18 = getelementptr i8, ptr %17, i64 -1
  %19 = load i8, ptr %18, align 1, !tbaa !53
  %.not6.i = icmp eq i8 %19, 47
  br i1 %.not6.i, label %strbuf_complete.exit, label %20

20:                                               ; preds = %15
  %21 = load i64, ptr %8, align 8, !tbaa !210
  %.not.i.i.i = icmp eq i64 %21, 0
  %.neg.i.i = add i64 %14, 1
  %.not.i.i = icmp eq i64 %21, %.neg.i.i
  %or.cond.i = or i1 %.not.i.i.i, %.not.i.i
  br i1 %or.cond.i, label %strbuf_avail.exit.thread.i.i, label %strbuf_addch.exit.i

strbuf_avail.exit.thread.i.i:                     ; preds = %20
  tail call void @strbuf_grow(ptr noundef nonnull %8, i64 noundef 1) #21
  %.pre.i.i = load i64, ptr %9, align 8, !tbaa !70
  %.pre7.i.i = add i64 %.pre.i.i, 1
  %.pre.i = load ptr, ptr %10, align 8, !tbaa !69
  br label %strbuf_addch.exit.i

strbuf_addch.exit.i:                              ; preds = %strbuf_avail.exit.thread.i.i, %20
  %22 = phi ptr [ %.pre.i, %strbuf_avail.exit.thread.i.i ], [ %16, %20 ]
  %.pre-phi.i.i = phi i64 [ %.pre7.i.i, %strbuf_avail.exit.thread.i.i ], [ %.neg.i.i, %20 ]
  %23 = phi i64 [ %.pre.i.i, %strbuf_avail.exit.thread.i.i ], [ %14, %20 ]
  store i64 %.pre-phi.i.i, ptr %9, align 8, !tbaa !70
  %24 = getelementptr inbounds nuw i8, ptr %22, i64 %23
  store i8 47, ptr %24, align 1, !tbaa !53
  %25 = load ptr, ptr %10, align 8, !tbaa !69
  %26 = load i64, ptr %9, align 8, !tbaa !70
  %27 = getelementptr inbounds nuw i8, ptr %25, i64 %26
  store i8 0, ptr %27, align 1, !tbaa !53
  br label %strbuf_complete.exit

strbuf_complete.exit:                             ; preds = %strbuf_setlen.exit, %15, %strbuf_addch.exit.i
  ret i32 0
}